target datalayout = "e-m:e-p270:32:32-p271:32:32-p272:64:64-i64:64-i128:128-f80:128-n8:16:32:64-S128"
target triple = "x86_64-pc-linux-gnu"

%struct.AVRational = type { i32, i32 }
%struct.AVFormatContext = type { ptr, ptr, ptr, ptr, ptr, i32, i32, ptr, i32, ptr, i32, ptr, ptr, i64, i64, i64, i32, i32, i32, i64, i64, ptr, i32, i32, ptr, i32, i32, i32, i32, ptr, i64, i32, i32, %struct.AVIOInterruptCB, i32, i32, i32, i32, i64, i32, i32, i32, i32, i32, i32, i32, i32, i32, i32, i32, i32, i64, i32, i32, i32, i32, i32, ptr, ptr, ptr, ptr, i32, ptr, ptr, ptr, ptr, i32, ptr, ptr, i64, ptr, ptr, ptr, i64 }
%struct.AVIOInterruptCB = type { ptr, ptr }
%struct.AVStream = type { ptr, i32, i32, ptr, ptr, %struct.AVRational, i64, i64, i64, i32, i32, %struct.AVRational, ptr, %struct.AVRational, %struct.AVPacket, i32, %struct.AVRational, i32 }
%struct.AVPacket = type { ptr, i64, i64, ptr, i32, i32, i32, ptr, i32, i64, i64, ptr, ptr, %struct.AVRational }
%struct.AVIStream = type { i64, i64, i32, i32, i32, i32, i64, %struct.AVIIndex, i64, [256 x i32], [256 x i32], i64 }
%struct.AVIIndex = type { i64, i64, i32, i32, i32, ptr }

; Function Attrs: nounwind uwtable
define internal void @avi_deinit(ptr noundef %0) #0 {
  %2 = alloca ptr, align 8
  %3 = alloca i32, align 4
  %4 = alloca i32, align 4
  %5 = alloca ptr, align 8
  %6 = alloca i32, align 4
  store ptr %0, ptr %2, align 8, !tbaa !4
  call void @llvm.lifetime.start.p0(i64 4, ptr %3) #12
  store i32 0, ptr %3, align 4, !tbaa !43
  br label %7

7:                                                ; preds = %61, %1
  %8 = load i32, ptr %3, align 4, !tbaa !43
  %9 = load ptr, ptr %2, align 8, !tbaa !4
  %10 = getelementptr inbounds nuw %struct.AVFormatContext, ptr %9, i32 0, i32 6
  %11 = load i32, ptr %10, align 4, !tbaa !35
  %12 = icmp ult i32 %8, %11
  br i1 %12, label %14, label %13

13:                                               ; preds = %7
  store i32 2, ptr %4, align 4
  call void @llvm.lifetime.end.p0(i64 4, ptr %3) #12
  br label %64

14:                                               ; preds = %7
  call void @llvm.lifetime.start.p0(i64 8, ptr %5) #12
  %15 = load ptr, ptr %2, align 8, !tbaa !4
  %16 = getelementptr inbounds nuw %struct.AVFormatContext, ptr %15, i32 0, i32 7
  %17 = load ptr, ptr %16, align 8, !tbaa !44
  %18 = load i32, ptr %3, align 4, !tbaa !43
  %19 = sext i32 %18 to i64
  %20 = getelementptr inbounds ptr, ptr %17, i64 %19
  %21 = load ptr, ptr %20, align 8, !tbaa !31
  %22 = getelementptr inbounds nuw %struct.AVStream, ptr %21, i32 0, i32 4
  %23 = load ptr, ptr %22, align 8, !tbaa !45
  store ptr %23, ptr %5, align 8, !tbaa !77
  %24 = load ptr, ptr %5, align 8, !tbaa !77
  %25 = icmp ne ptr %24, null
  br i1 %25, label %27, label %26

26:                                               ; preds = %14
  store i32 4, ptr %4, align 4
  br label %58

27:                                               ; preds = %14
  call void @llvm.lifetime.start.p0(i64 4, ptr %6) #12
  store i32 0, ptr %6, align 4, !tbaa !43
  br label %28

28:                                               ; preds = %45, %27
  %29 = load i32, ptr %6, align 4, !tbaa !43
  %30 = load ptr, ptr %5, align 8, !tbaa !77
  %31 = getelementptr inbounds nuw %struct.AVIStream, ptr %30, i32 0, i32 7
  %32 = getelementptr inbounds nuw %struct.AVIIndex, ptr %31, i32 0, i32 3
  %33 = load i32, ptr %32, align 4, !tbaa !117
  %34 = sdiv i32 %33, 16384
  %35 = icmp slt i32 %29, %34
  br i1 %35, label %37, label %36

36:                                               ; preds = %28
  store i32 5, ptr %4, align 4
  call void @llvm.lifetime.end.p0(i64 4, ptr %6) #12
  br label %48

37:                                               ; preds = %28
  %38 = load ptr, ptr %5, align 8, !tbaa !77
  %39 = getelementptr inbounds nuw %struct.AVIStream, ptr %38, i32 0, i32 7
  %40 = getelementptr inbounds nuw %struct.AVIIndex, ptr %39, i32 0, i32 5
  %41 = load ptr, ptr %40, align 8, !tbaa !118
  %42 = load i32, ptr %6, align 4, !tbaa !43
  %43 = sext i32 %42 to i64
  %44 = getelementptr inbounds ptr, ptr %41, i64 %43
  call void @av_freep(ptr noundef %44)
  br label %45

45:                                               ; preds = %37
  %46 = load i32, ptr %6, align 4, !tbaa !43
  %47 = add nsw i32 %46, 1
  store i32 %47, ptr %6, align 4, !tbaa !43
  br label %28, !llvm.loop !119

48:                                               ; preds = %36
  %49 = load ptr, ptr %5, align 8, !tbaa !77
  %50 = getelementptr inbounds nuw %struct.AVIStream, ptr %49, i32 0, i32 7
  %51 = getelementptr inbounds nuw %struct.AVIIndex, ptr %50, i32 0, i32 5
  call void @av_freep(ptr noundef %51)
  %52 = load ptr, ptr %5, align 8, !tbaa !77
  %53 = getelementptr inbounds nuw %struct.AVIStream, ptr %52, i32 0, i32 7
  %54 = getelementptr inbounds nuw %struct.AVIIndex, ptr %53, i32 0, i32 2
  store i32 0, ptr %54, align 8, !tbaa !120
  %55 = load ptr, ptr %5, align 8, !tbaa !77
  %56 = getelementptr inbounds nuw %struct.AVIStream, ptr %55, i32 0, i32 7
  %57 = getelementptr inbounds nuw %struct.AVIIndex, ptr %56, i32 0, i32 3
  store i32 0, ptr %57, align 4, !tbaa !117
  store i32 0, ptr %4, align 4
  br label %58

58:                                               ; preds = %48, %26
  call void @llvm.lifetime.end.p0(i64 8, ptr %5) #12
  %59 = load i32, ptr %4, align 4
  switch i32 %59, label %65 [
    i32 0, label %60
    i32 4, label %61
  ]

60:                                               ; preds = %58
  br label %61

61:                                               ; preds = %60, %58
  %62 = load i32, ptr %3, align 4, !tbaa !43
  %63 = add nsw i32 %62, 1
  store i32 %63, ptr %3, align 4, !tbaa !43
  br label %7, !llvm.loop !121

64:                                               ; preds = %13
  ret void

65:                                               ; preds = %58
  unreachable
}