; Function Attrs: nounwind uwtable
define internal void @avi_deinit(ptr noundef readonly captures(none) %0) #0 {
  %2 = getelementptr inbounds nuw i8, ptr %0, i64 44
  %3 = load i32, ptr %2, align 4, !tbaa !25
  %.not20 = icmp eq i32 %3, 0
  br i1 %.not20, label %._crit_edge19, label %.lr.ph18

.lr.ph18:                                         ; preds = %1
  %4 = getelementptr inbounds nuw i8, ptr %0, i64 48
  br label %5

._crit_edge19:                                    ; preds = %25, %1
  ret void

5:                                                ; preds = %.lr.ph18, %25
  %6 = phi i32 [ %3, %.lr.ph18 ], [ %26, %25 ]
  %indvars.iv22 = phi i64 [ 0, %.lr.ph18 ], [ %indvars.iv.next23, %25 ]
  %7 = load ptr, ptr %4, align 8, !tbaa !36
  %8 = getelementptr inbounds nuw ptr, ptr %7, i64 %indvars.iv22
  %9 = load ptr, ptr %8, align 8, !tbaa !37
  %10 = getelementptr inbounds nuw i8, ptr %9, i64 24
  %11 = load ptr, ptr %10, align 8, !tbaa !39
  %.not = icmp eq ptr %11, null
  br i1 %.not, label %25, label %.preheader

.preheader:                                       ; preds = %5
  %12 = getelementptr inbounds nuw i8, ptr %11, i64 60
  %13 = load i32, ptr %12, align 4, !tbaa !107
  %14 = icmp sgt i32 %13, 16383
  br i1 %14, label %.lr.ph, label %._crit_edge

.lr.ph:                                           ; preds = %.preheader
  %15 = getelementptr inbounds nuw i8, ptr %11, i64 72
  br label %18

._crit_edge:                                      ; preds = %18, %.preheader
  %16 = getelementptr inbounds nuw i8, ptr %11, i64 72
  tail call void @av_freep(ptr noundef nonnull %16) #10
  %17 = getelementptr inbounds nuw i8, ptr %11, i64 56
  store i32 0, ptr %17, align 8, !tbaa !51
  store i32 0, ptr %12, align 4, !tbaa !107
  %.pre = load i32, ptr %2, align 4, !tbaa !25
  br label %25

18:                                               ; preds = %.lr.ph, %18
  %indvars.iv = phi i64 [ 0, %.lr.ph ], [ %indvars.iv.next, %18 ]
  %19 = load ptr, ptr %15, align 8, !tbaa !108
  %20 = getelementptr inbounds nuw ptr, ptr %19, i64 %indvars.iv
  tail call void @av_freep(ptr noundef %20) #10
  %indvars.iv.next = add nuw nsw i64 %indvars.iv, 1
  %21 = load i32, ptr %12, align 4, !tbaa !107
  %22 = sdiv i32 %21, 16384
  %23 = sext i32 %22 to i64
  %24 = icmp slt i64 %indvars.iv.next, %23
  br i1 %24, label %18, label %._crit_edge, !llvm.loop !109

25:                                               ; preds = %5, %._crit_edge
  %26 = phi i32 [ %6, %5 ], [ %.pre, %._crit_edge ]
  %indvars.iv.next23 = add nuw nsw i64 %indvars.iv22, 1
  %27 = zext i32 %26 to i64
  %28 = icmp samesign ult i64 %indvars.iv.next23, %27
  br i1 %28, label %5, label %._crit_edge19, !llvm.loop !110
}